ARM GAS  C:\Users\KRISTE~1\AppData\Local\Temp\cc1vb8DE.s 			page 1


   1              		.syntax unified
   2              		.cpu cortex-m3
   3              		.fpu softvfp
   4              		.eabi_attribute 20, 1
   5              		.eabi_attribute 21, 1
   6              		.eabi_attribute 23, 3
   7              		.eabi_attribute 24, 1
   8              		.eabi_attribute 25, 1
   9              		.eabi_attribute 26, 1
  10              		.eabi_attribute 30, 1
  11              		.eabi_attribute 34, 1
  12              		.eabi_attribute 18, 4
  13              		.thumb
  14              		.syntax unified
  15              		.file	"main.c"
  16              		.text
  17              	.Ltext0:
  18              		.cfi_sections	.debug_frame
  19              		.section	.text.main,"ax",%progbits
  20              		.align	2
  21              		.global	main
  22              		.thumb
  23              		.thumb_func
  24              		.type	main, %function
  25              	main:
  26              	.LFB63:
  27              		.file 1 "main.c"
   1:main.c        **** /* ========================================
   2:main.c        ****  *
   3:main.c        ****  * Copyright YOUR COMPANY, THE YEAR
   4:main.c        ****  * All Rights Reserved
   5:main.c        ****  * UNPUBLISHED, LICENSED SOFTWARE.
   6:main.c        ****  *
   7:main.c        ****  * CONFIDENTIAL AND PROPRIETARY INFORMATION
   8:main.c        ****  * WHICH IS THE PROPERTY OF your company.
   9:main.c        ****  *
  10:main.c        ****  * ========================================
  11:main.c        **** */
  12:main.c        **** #include "project.h"
  13:main.c        **** #include "letters.h"
  14:main.c        **** 
  15:main.c        **** // M x N matrix
  16:main.c        **** #define ROWS 16
  17:main.c        **** #define COLS 64
  18:main.c        **** 
  19:main.c        **** int main(void)
  20:main.c        **** {
  28              		.loc 1 20 0
  29              		.cfi_startproc
  30              		@ args = 0, pretend = 0, frame = 4760
  31              		@ frame_needed = 0, uses_anonymous_args = 0
  32 0000 70B5     		push	{r4, r5, r6, lr}
  33              		.cfi_def_cfa_offset 16
  34              		.cfi_offset 4, -16
  35              		.cfi_offset 5, -12
  36              		.cfi_offset 6, -8
  37              		.cfi_offset 14, -4
ARM GAS  C:\Users\KRISTE~1\AppData\Local\Temp\cc1vb8DE.s 			page 2


  38 0002 ADF5945D 		sub	sp, sp, #4736
  39              		.cfi_def_cfa_offset 4752
  40 0006 86B0     		sub	sp, sp, #24
  41              		.cfi_def_cfa_offset 4776
  21:main.c        ****     CyGlobalIntEnable; /* Enable global interrupts. */
  42              		.loc 1 21 0
  43              		.syntax unified
  44              	@ 21 "main.c" 1
  45 0008 62B6     		CPSIE   i
  46              	@ 0 "" 2
  22:main.c        **** ////    for ( int i = 0; i< 16; ++i){
  23:main.c        **** //        R1_Write(1) ;
  24:main.c        **** //        B1_Write(1);
  25:main.c        **** //        G1_Write(1); 
  26:main.c        **** //        A_Write(1); 
  27:main.c        **** //        B_Write(1); 
  28:main.c        **** //        C_Write(1); 
  29:main.c        **** //        D_Write(1);
  30:main.c        **** //        
  31:main.c        **** //        LAT_Write(0);         
  32:main.c        **** //        CLK_Write(0);
  33:main.c        **** //        CLK_Write(1);
  34:main.c        **** //        CLK_Write(0); 
  35:main.c        **** //        LAT_Write(1) ; 
  36:main.c        **** //        //LAT_Write(0) ; 
  37:main.c        **** //        CyDelay(1);
  38:main.c        **** //        OE_Write(0);  //OE low- turns them all on or off 
  39:main.c        **** ////    }
  40:main.c        ****     
  41:main.c        ****     int matrix[ROWS][COLS] = { 0 };
  47              		.loc 1 41 0
  48              		.thumb
  49              		.syntax unified
  50 000a 4FF48052 		mov	r2, #4096
  51 000e 0021     		movs	r1, #0
  52 0010 A6A8     		add	r0, sp, #664
  53 0012 FFF7FEFF 		bl	memset
  54              	.LVL0:
  42:main.c        ****     int size_row = sizeof(A)/sizeof(A[0]);
  43:main.c        ****     int size_col = sizeof(A[0])/sizeof(A[0][0]);
  44:main.c        **** 
  45:main.c        ****     
  46:main.c        ****     char text[]= "A";
  55              		.loc 1 46 0
  56 0016 4123     		movs	r3, #65
  57 0018 ADF89432 		strh	r3, [sp, #660]	@ movhi
  58              	.LVL1:
  59              	.LBB2:
  47:main.c        ****     int letter[15][11];
  48:main.c        ****     for (int l = 0; l < (int)strlen(text); l++) {
  60              		.loc 1 48 0
  61 001c 0024     		movs	r4, #0
  62 001e 20E0     		b	.L2
  63              	.LVL2:
  64              	.L9:
  49:main.c        ****         memcpy(letter, P, sizeof(X)); // where to change letter
  65              		.loc 1 49 0
ARM GAS  C:\Users\KRISTE~1\AppData\Local\Temp\cc1vb8DE.s 			page 3


  66 0020 4FF42572 		mov	r2, #660
  67 0024 3949     		ldr	r1, .L16
  68 0026 6846     		mov	r0, sp
  69 0028 FFF7FEFF 		bl	memcpy
  70              	.LVL3:
  71              	.LBB3:
  50:main.c        ****         // fill the 2d array with letters
  51:main.c        ****         for (int r = 0; r < ROWS; r++) {
  72              		.loc 1 51 0
  73 002c 0023     		movs	r3, #0
  74 002e 15E0     		b	.L3
  75              	.LVL4:
  76              	.L8:
  52:main.c        ****             if (r == size_row) {
  77              		.loc 1 52 0
  78 0030 0F2B     		cmp	r3, #15
  79 0032 15D0     		beq	.L4
  80 0034 0022     		movs	r2, #0
  81 0036 0EE0     		b	.L5
  82              	.LVL5:
  83              	.L7:
  84              	.LBB4:
  53:main.c        ****                 break;
  54:main.c        ****             }
  55:main.c        ****             
  56:main.c        ****             for (int c = 0; c < COLS; c++) {
  57:main.c        ****                 if (c == size_col) {
  85              		.loc 1 57 0
  86 0038 0B2A     		cmp	r2, #11
  87 003a 0ED0     		beq	.L6
  58:main.c        ****                     break;
  59:main.c        ****                 }
  60:main.c        ****                 matrix[r][c] = letter[r][c];
  88              		.loc 1 60 0 discriminator 2
  89 003c 03EB8301 		add	r1, r3, r3, lsl #2
  90 0040 03EB4101 		add	r1, r3, r1, lsl #1
  91 0044 1144     		add	r1, r1, r2
  92 0046 5DF82150 		ldr	r5, [sp, r1, lsl #2]
  93 004a 02EB8310 		add	r0, r2, r3, lsl #6
  94 004e A6A9     		add	r1, sp, #664
  95 0050 41F82050 		str	r5, [r1, r0, lsl #2]
  56:main.c        ****                 if (c == size_col) {
  96              		.loc 1 56 0 discriminator 2
  97 0054 0132     		adds	r2, r2, #1
  98              	.LVL6:
  99              	.L5:
  56:main.c        ****                 if (c == size_col) {
 100              		.loc 1 56 0 is_stmt 0 discriminator 1
 101 0056 3F2A     		cmp	r2, #63
 102 0058 EEDD     		ble	.L7
 103              	.L6:
 104              	.LBE4:
  51:main.c        ****             if (r == size_row) {
 105              		.loc 1 51 0 is_stmt 1 discriminator 2
 106 005a 0133     		adds	r3, r3, #1
 107              	.LVL7:
 108              	.L3:
ARM GAS  C:\Users\KRISTE~1\AppData\Local\Temp\cc1vb8DE.s 			page 4


  51:main.c        ****             if (r == size_row) {
 109              		.loc 1 51 0 is_stmt 0 discriminator 1
 110 005c 0F2B     		cmp	r3, #15
 111 005e E7DD     		ble	.L8
 112              	.L4:
 113              	.LBE3:
  48:main.c        ****         memcpy(letter, P, sizeof(X)); // where to change letter
 114              		.loc 1 48 0 is_stmt 1 discriminator 2
 115 0060 0134     		adds	r4, r4, #1
 116              	.LVL8:
 117              	.L2:
  48:main.c        ****         memcpy(letter, P, sizeof(X)); // where to change letter
 118              		.loc 1 48 0 is_stmt 0 discriminator 1
 119 0062 A5A8     		add	r0, sp, #660
 120 0064 FFF7FEFF 		bl	strlen
 121              	.LVL9:
 122 0068 8442     		cmp	r4, r0
 123 006a D9DB     		blt	.L9
 124              	.LBE2:
  61:main.c        ****             }
  62:main.c        ****         }
  63:main.c        ****     }
  64:main.c        ****     
  65:main.c        ****     CLK_Write(0);
 125              		.loc 1 65 0 is_stmt 1
 126 006c 0020     		movs	r0, #0
 127 006e FFF7FEFF 		bl	CLK_Write
 128              	.LVL10:
  66:main.c        ****     LAT_Write(0);
 129              		.loc 1 66 0
 130 0072 0020     		movs	r0, #0
 131 0074 FFF7FEFF 		bl	LAT_Write
 132              	.LVL11:
 133              	.L14:
 134              	.LBB5:
  67:main.c        ****     
  68:main.c        ****     for(;;)
  69:main.c        ****     {
  70:main.c        ****         for(int j=0 ; j<ROWS; ++j){
 135              		.loc 1 70 0
 136 0078 0024     		movs	r4, #0
 137 007a 44E0     		b	.L10
 138              	.LVL12:
 139              	.L13:
  71:main.c        ****             OE_Write(1); // OE high 
 140              		.loc 1 71 0
 141 007c 0120     		movs	r0, #1
 142 007e FFF7FEFF 		bl	OE_Write
 143              	.LVL13:
 144              	.LBB6:
  72:main.c        ****             for(int i=0 ; i<COLS; ++i){         
 145              		.loc 1 72 0
 146 0082 0025     		movs	r5, #0
 147 0084 2FE0     		b	.L11
 148              	.LVL14:
 149              	.L12:
  73:main.c        ****                 R1_Write((matrix[j][i])); 
ARM GAS  C:\Users\KRISTE~1\AppData\Local\Temp\cc1vb8DE.s 			page 5


 150              		.loc 1 73 0 discriminator 3
 151 0086 05EB8412 		add	r2, r5, r4, lsl #6
 152 008a A6AB     		add	r3, sp, #664
 153 008c 13F82260 		ldrb	r6, [r3, r2, lsl #2]	@ zero_extendqisi2
 154 0090 3046     		mov	r0, r6
 155 0092 FFF7FEFF 		bl	R1_Write
 156              	.LVL15:
  74:main.c        ****                 B1_Write((matrix[j][i])); // shift to  make it every other dot a dif color 
 157              		.loc 1 74 0 discriminator 3
 158 0096 3046     		mov	r0, r6
 159 0098 FFF7FEFF 		bl	B1_Write
 160              	.LVL16:
  75:main.c        ****                 G1_Write((matrix[j][i]));
 161              		.loc 1 75 0 discriminator 3
 162 009c 3046     		mov	r0, r6
 163 009e FFF7FEFF 		bl	G1_Write
 164              	.LVL17:
  76:main.c        ****                 A_Write(j);
 165              		.loc 1 76 0 discriminator 3
 166 00a2 E0B2     		uxtb	r0, r4
 167 00a4 FFF7FEFF 		bl	A_Write
 168              	.LVL18:
  77:main.c        ****                 B_Write(j>>1);
 169              		.loc 1 77 0 discriminator 3
 170 00a8 C4F34700 		ubfx	r0, r4, #1, #8
 171 00ac FFF7FEFF 		bl	B_Write
 172              	.LVL19:
  78:main.c        ****                 C_Write(j>>2); 
 173              		.loc 1 78 0 discriminator 3
 174 00b0 C4F38700 		ubfx	r0, r4, #2, #8
 175 00b4 FFF7FEFF 		bl	C_Write
 176              	.LVL20:
  79:main.c        ****                 D_Write(j>>3);
 177              		.loc 1 79 0 discriminator 3
 178 00b8 C4F3C700 		ubfx	r0, r4, #3, #8
 179 00bc FFF7FEFF 		bl	D_Write
 180              	.LVL21:
  80:main.c        ****                 R2_Write(0); 
 181              		.loc 1 80 0 discriminator 3
 182 00c0 0020     		movs	r0, #0
 183 00c2 FFF7FEFF 		bl	R2_Write
 184              	.LVL22:
  81:main.c        ****                 B2_Write(0);
 185              		.loc 1 81 0 discriminator 3
 186 00c6 0020     		movs	r0, #0
 187 00c8 FFF7FEFF 		bl	B2_Write
 188              	.LVL23:
  82:main.c        ****                 G2_Write(0); 
 189              		.loc 1 82 0 discriminator 3
 190 00cc 0020     		movs	r0, #0
 191 00ce FFF7FEFF 		bl	G2_Write
 192              	.LVL24:
  83:main.c        ****                 CLK_Write(0);
 193              		.loc 1 83 0 discriminator 3
 194 00d2 0020     		movs	r0, #0
 195 00d4 FFF7FEFF 		bl	CLK_Write
 196              	.LVL25:
ARM GAS  C:\Users\KRISTE~1\AppData\Local\Temp\cc1vb8DE.s 			page 6


  84:main.c        ****                 //CyDelay(1);
  85:main.c        ****                 CLK_Write(1);
 197              		.loc 1 85 0 discriminator 3
 198 00d8 0120     		movs	r0, #1
 199 00da FFF7FEFF 		bl	CLK_Write
 200              	.LVL26:
  86:main.c        ****                 //CyDelay(1);
  87:main.c        ****                 CLK_Write(0);
 201              		.loc 1 87 0 discriminator 3
 202 00de 0020     		movs	r0, #0
 203 00e0 FFF7FEFF 		bl	CLK_Write
 204              	.LVL27:
  72:main.c        ****                 R1_Write((matrix[j][i])); 
 205              		.loc 1 72 0 discriminator 3
 206 00e4 0135     		adds	r5, r5, #1
 207              	.LVL28:
 208              	.L11:
  72:main.c        ****                 R1_Write((matrix[j][i])); 
 209              		.loc 1 72 0 is_stmt 0 discriminator 1
 210 00e6 3F2D     		cmp	r5, #63
 211 00e8 CDDD     		ble	.L12
 212              	.LBE6:
  88:main.c        ****                 
  89:main.c        ****             } // end of row
  90:main.c        **** //            if(j&1){
  91:main.c        **** //                LAT_Write(1) ; 
  92:main.c        **** //            }
  93:main.c        **** //            else{
  94:main.c        **** //                LAT_Write(0);
  95:main.c        **** //            }
  96:main.c        ****         
  97:main.c        ****         LAT_Write(1); 
 213              		.loc 1 97 0 is_stmt 1 discriminator 2
 214 00ea 0120     		movs	r0, #1
 215 00ec FFF7FEFF 		bl	LAT_Write
 216              	.LVL29:
  98:main.c        ****         
  99:main.c        ****         LAT_Write(0);       
 217              		.loc 1 99 0 discriminator 2
 218 00f0 0020     		movs	r0, #0
 219 00f2 FFF7FEFF 		bl	LAT_Write
 220              	.LVL30:
 100:main.c        ****         OE_Write(0);
 221              		.loc 1 100 0 discriminator 2
 222 00f6 0020     		movs	r0, #0
 223 00f8 FFF7FEFF 		bl	OE_Write
 224              	.LVL31:
 101:main.c        ****         CyDelayUs(300);   
 225              		.loc 1 101 0 discriminator 2
 226 00fc 4FF49670 		mov	r0, #300
 227 0100 FFF7FEFF 		bl	CyDelayUs
 228              	.LVL32:
  70:main.c        ****             OE_Write(1); // OE high 
 229              		.loc 1 70 0 discriminator 2
 230 0104 0134     		adds	r4, r4, #1
 231              	.LVL33:
 232              	.L10:
ARM GAS  C:\Users\KRISTE~1\AppData\Local\Temp\cc1vb8DE.s 			page 7


  70:main.c        ****             OE_Write(1); // OE high 
 233              		.loc 1 70 0 is_stmt 0 discriminator 1
 234 0106 0F2C     		cmp	r4, #15
 235 0108 B8DD     		ble	.L13
 236 010a B5E7     		b	.L14
 237              	.L17:
 238              		.align	2
 239              	.L16:
 240 010c 00000000 		.word	P
 241              	.LBE5:
 242              		.cfi_endproc
 243              	.LFE63:
 244              		.size	main, .-main
 245              		.text
 246              	.Letext0:
 247              		.file 2 "c:\\program files (x86)\\cypress\\psoc creator\\4.4\\psoc creator\\import\\gnu\\arm\\5.4.
 248              		.file 3 "c:\\program files (x86)\\cypress\\psoc creator\\4.4\\psoc creator\\import\\gnu\\arm\\5.4.
 249              		.file 4 "letters.h"
 250              		.file 5 "c:\\program files (x86)\\cypress\\psoc creator\\4.4\\psoc creator\\import\\gnu\\arm\\5.4.
 251              		.file 6 "Generated_Source\\PSoC5/R1.h"
 252              		.file 7 "Generated_Source\\PSoC5/B1.h"
 253              		.file 8 "Generated_Source\\PSoC5/G1.h"
 254              		.file 9 "Generated_Source\\PSoC5/A.h"
 255              		.file 10 "Generated_Source\\PSoC5/B.h"
 256              		.file 11 "Generated_Source\\PSoC5/C.h"
 257              		.file 12 "Generated_Source\\PSoC5/D.h"
 258              		.file 13 "Generated_Source\\PSoC5/R2.h"
 259              		.file 14 "Generated_Source\\PSoC5/B2.h"
 260              		.file 15 "Generated_Source\\PSoC5/G2.h"
 261              		.file 16 "Generated_Source\\PSoC5/CLK.h"
 262              		.file 17 "Generated_Source\\PSoC5/OE.h"
 263              		.file 18 "Generated_Source\\PSoC5/LAT.h"
 264              		.file 19 "Generated_Source\\PSoC5/CyLib.h"
 265              		.file 20 "Generated_Source\\PSoC5/core_cm3.h"